; Function Attrs: mustprogress nofree norecurse nosync nounwind willreturn memory(readwrite, inaccessiblemem: none) uwtable
define range(i32 0, 128) i32 @ff_vvc_tu_y_coded_flag(ptr noundef captures(none) %0) local_unnamed_addr #2 {
  %2 = getelementptr inbounds nuw i8, ptr %0, i64 4547736
  %3 = load ptr, ptr %2, align 8, !tbaa !124
  %4 = getelementptr inbounds nuw i8, ptr %3, i64 72
  %5 = load i32, ptr %4, align 8, !tbaa !123
  %.not = icmp eq i32 %5, 0
  br i1 %.not, label %6, label %15

6:                                                ; preds = %1
  %7 = getelementptr inbounds nuw i8, ptr %3, i64 48
  %8 = load i32, ptr %7, align 8, !tbaa !154
  %9 = icmp eq i32 %8, 0
  br i1 %9, label %15, label %10

10:                                               ; preds = %6
  %11 = getelementptr inbounds nuw i8, ptr %0, i64 4547700
  %12 = load i32, ptr %11, align 4, !tbaa !155
  %13 = add nsw i32 %12, 135
  %14 = sext i32 %13 to i64
  br label %15

15:                                               ; preds = %6, %1, %10
  %.0 = phi i64 [ %14, %10 ], [ 134, %1 ], [ 133, %6 ]
  %16 = getelementptr inbounds nuw i8, ptr %0, i64 4580560
  %17 = load ptr, ptr %16, align 16, !tbaa !67
  %18 = getelementptr inbounds nuw i8, ptr %17, i64 2672
  %19 = getelementptr inbounds nuw i8, ptr %17, i64 400
  %20 = getelementptr inbounds %struct.VVCCabacState, ptr %19, i64 %.0
  %21 = getelementptr inbounds nuw i8, ptr %17, i64 2676
  %22 = load i32, ptr %21, align 4, !tbaa !100
  %23 = ashr i32 %22, 5
  %24 = getelementptr inbounds nuw i8, ptr %20, i64 2
  %25 = load i16, ptr %24, align 2, !tbaa !58
  %26 = zext i16 %25 to i32
  %27 = load i16, ptr %20, align 2, !tbaa !58
  %28 = zext i16 %27 to i32
  %29 = shl nuw nsw i32 %28, 4
  %30 = add nuw nsw i32 %29, %26
  %.not.i = icmp samesign ult i32 %30, 16384
  %31 = sub nsw i32 32767, %30
  %32 = select i1 %.not.i, i32 %30, i32 %31
  %33 = ashr i32 %32, 9
  %34 = mul nsw i32 %33, %23
  %35 = ashr i32 %34, 1
  %36 = add nsw i32 %35, 4
  %37 = sub nsw i32 %22, %36
  %38 = shl i32 %37, 17
  %39 = load i32, ptr %18, align 8, !tbaa !70
  %40 = icmp slt i32 %38, %39
  %41 = select i1 %40, i32 %38, i32 0
  %42 = sub nsw i32 %39, %41
  %43 = select i1 %40, i32 %36, i32 %37
  %44 = sext i32 %43 to i64
  %45 = getelementptr inbounds i8, ptr @ff_h264_cabac_tables, i64 %44
  %46 = load i8, ptr %45, align 1, !tbaa !97
  %47 = zext i8 %46 to i32
  %48 = shl i32 %43, %47
  store i32 %48, ptr %21, align 4, !tbaa !100
  %49 = shl i32 %42, %47
  store i32 %49, ptr %18, align 8, !tbaa !70
  %50 = and i32 %49, 65535
  %.not42.i = icmp eq i32 %50, 0
  br i1 %.not42.i, label %51, label %vvc_get_cabac.exit

51:                                               ; preds = %15
  %52 = add nsw i32 %49, -1
  %53 = xor i32 %52, %49
  %54 = lshr i32 %53, 15
  %55 = zext nneg i32 %54 to i64
  %56 = getelementptr inbounds nuw i8, ptr @ff_h264_cabac_tables, i64 %55
  %57 = load i8, ptr %56, align 1, !tbaa !97
  %58 = zext i8 %57 to i32
  %59 = sub nsw i32 7, %58
  %60 = getelementptr inbounds nuw i8, ptr %17, i64 2688
  %61 = load ptr, ptr %60, align 8, !tbaa !68
  %62 = load i8, ptr %61, align 1, !tbaa !97
  %63 = zext i8 %62 to i32
  %64 = shl nuw nsw i32 %63, 9
  %65 = getelementptr inbounds nuw i8, ptr %61, i64 1
  %66 = load i8, ptr %65, align 1, !tbaa !97
  %67 = zext i8 %66 to i32
  %68 = shl nuw nsw i32 %67, 1
  %69 = or disjoint i32 %68, %64
  %70 = add nsw i32 %69, -65535
  %71 = shl nsw i32 %70, %59
  %72 = add i32 %71, %49
  store i32 %72, ptr %18, align 8, !tbaa !70
  %73 = getelementptr inbounds nuw i8, ptr %17, i64 2696
  %74 = load ptr, ptr %73, align 8, !tbaa !71
  %75 = icmp ult ptr %61, %74
  br i1 %75, label %76, label %vvc_get_cabac.exit

76:                                               ; preds = %51
  %77 = getelementptr inbounds nuw i8, ptr %61, i64 2
  store ptr %77, ptr %60, align 8, !tbaa !68
  br label %vvc_get_cabac.exit

vvc_get_cabac.exit:                               ; preds = %15, %51, %76
  %78 = lshr i32 %30, 14
  %79 = zext i1 %40 to i32
  %80 = xor i32 %78, %79
  %81 = getelementptr inbounds nuw i8, ptr %20, i64 4
  %82 = load i8, ptr %81, align 2, !tbaa !97
  %83 = zext i8 %82 to i32
  %84 = lshr i32 %28, %83
  %85 = sub nsw i32 %28, %84
  %86 = mul nuw nsw i32 %80, 1023
  %87 = lshr i32 %86, %83
  %88 = add nsw i32 %85, %87
  %89 = trunc i32 %88 to i16
  store i16 %89, ptr %20, align 2, !tbaa !58
  %90 = getelementptr inbounds nuw i8, ptr %20, i64 5
  %91 = load i8, ptr %90, align 1, !tbaa !97
  %92 = zext i8 %91 to i32
  %93 = lshr i32 %26, %92
  %94 = sub nsw i32 %26, %93
  %95 = mul nuw nsw i32 %80, 16383
  %96 = lshr i32 %95, %92
  %97 = add nsw i32 %94, %96
  %98 = trunc i32 %97 to i16
  store i16 %98, ptr %24, align 2, !tbaa !58
  %99 = getelementptr inbounds nuw i8, ptr %0, i64 4547700
  store i32 %80, ptr %99, align 4, !tbaa !155
  ret i32 %80
}